; Function Attrs: inlinehint nounwind uwtable
define internal fastcc zeroext i1 @lxb_html_tree_insertion_mode_in_body_pst(ptr noundef %0, ptr noundef %1) unnamed_addr #3 {
  %3 = tail call ptr @lxb_html_tree_insert_foreign_element(ptr noundef %0, ptr noundef %1, i64 noundef 2) #6
  %4 = icmp eq ptr %3, null
  br i1 %4, label %5, label %8

5:                                                ; preds = %2
  %6 = getelementptr inbounds nuw i8, ptr %0, i64 112
  store i32 2, ptr %6, align 8, !tbaa !22
  %7 = tail call zeroext i1 @lxb_html_tree_process_abort(ptr noundef %0) #6
  br label %lxb_html_tree_acknowledge_token_self_closing.exit

8:                                                ; preds = %2
  %9 = getelementptr i8, ptr %0, i64 32
  %.val = load ptr, ptr %9, align 8, !tbaa !33
  %10 = tail call ptr @lexbor_array_pop(ptr noundef %.val) #6
  %11 = getelementptr inbounds nuw i8, ptr %1, i64 88
  %12 = load i32, ptr %11, align 8, !tbaa !32
  %13 = and i32 %12, 2
  %14 = icmp eq i32 %13, 0
  br i1 %14, label %lxb_html_tree_acknowledge_token_self_closing.exit, label %15

15:                                               ; preds = %8
  %16 = getelementptr inbounds nuw i8, ptr %1, i64 80
  %17 = load i64, ptr %16, align 8, !tbaa !18
  switch i64 %17, label %lxb_html_tag_is_void.exit.i [
    i64 18, label %lxb_html_tree_acknowledge_token_self_closing.exit
    i64 23, label %lxb_html_tree_acknowledge_token_self_closing.exit
    i64 32, label %lxb_html_tree_acknowledge_token_self_closing.exit
    i64 40, label %lxb_html_tree_acknowledge_token_self_closing.exit
    i64 55, label %lxb_html_tree_acknowledge_token_self_closing.exit
    i64 100, label %lxb_html_tree_acknowledge_token_self_closing.exit
    i64 105, label %lxb_html_tree_acknowledge_token_self_closing.exit
    i64 106, label %lxb_html_tree_acknowledge_token_self_closing.exit
    i64 115, label %lxb_html_tree_acknowledge_token_self_closing.exit
    i64 124, label %lxb_html_tree_acknowledge_token_self_closing.exit
    i64 166, label %lxb_html_tree_acknowledge_token_self_closing.exit
    i64 188, label %lxb_html_tree_acknowledge_token_self_closing.exit
    i64 194, label %lxb_html_tree_acknowledge_token_self_closing.exit
  ]

lxb_html_tag_is_void.exit.i:                      ; preds = %15
  tail call void @lxb_html_tree_parse_error(ptr noundef nonnull %0, ptr noundef nonnull %1, i32 noundef 11) #6
  br label %lxb_html_tree_acknowledge_token_self_closing.exit

lxb_html_tree_acknowledge_token_self_closing.exit: ; preds = %lxb_html_tag_is_void.exit.i, %15, %15, %15, %15, %15, %15, %15, %15, %15, %15, %15, %15, %15, %8, %5
  %.0 = phi i1 [ %7, %5 ], [ true, %8 ], [ true, %15 ], [ true, %15 ], [ true, %15 ], [ true, %15 ], [ true, %15 ], [ true, %15 ], [ true, %15 ], [ true, %15 ], [ true, %15 ], [ true, %15 ], [ true, %15 ], [ true, %15 ], [ true, %15 ], [ true, %lxb_html_tag_is_void.exit.i ]
  ret i1 %.0
}